; Function Attrs: nounwind uwtable
define internal i32 @ARKBBDPrecSolve(double %0, ptr readnone captures(none) %1, ptr readnone captures(none) %2, ptr noundef %3, ptr noundef %4, double %5, double %6, i32 %7, ptr noundef readonly captures(none) %8) #0 {
  %10 = tail call ptr @N_VGetArrayPointer(ptr noundef %3) #9
  %11 = getelementptr inbounds nuw i8, ptr %8, i64 112
  %12 = load ptr, ptr %11, align 8, !tbaa !38
  tail call void @N_VSetArrayPointer(ptr noundef %10, ptr noundef %12) #9
  %13 = tail call ptr @N_VGetArrayPointer(ptr noundef %4) #9
  %14 = getelementptr inbounds nuw i8, ptr %8, i64 104
  %15 = load ptr, ptr %14, align 8, !tbaa !37
  tail call void @N_VSetArrayPointer(ptr noundef %13, ptr noundef %15) #9
  %16 = getelementptr inbounds nuw i8, ptr %8, i64 72
  %17 = load ptr, ptr %16, align 8, !tbaa !42
  %18 = getelementptr inbounds nuw i8, ptr %8, i64 64
  %19 = load ptr, ptr %18, align 8, !tbaa !36
  %20 = load ptr, ptr %14, align 8, !tbaa !37
  %21 = load ptr, ptr %11, align 8, !tbaa !38
  %22 = tail call i32 @SUNLinSolSolve(ptr noundef %17, ptr noundef %19, ptr noundef %20, ptr noundef %21, double noundef 0.000000e+00) #9
  %23 = load ptr, ptr %11, align 8, !tbaa !38
  tail call void @N_VSetArrayPointer(ptr noundef null, ptr noundef %23) #9
  %24 = load ptr, ptr %14, align 8, !tbaa !37
  tail call void @N_VSetArrayPointer(ptr noundef null, ptr noundef %24) #9
  ret i32 %22
}